; Function Attrs: mustprogress nounwind uwtable
define noundef nonnull align 8 dereferenceable(8) ptr @_ZN32pxrInternal_v0_24__pxrReserved__10UsdZipFile8IteratoraSEOS1_(ptr noundef nonnull returned align 8 dereferenceable(8) %0, ptr nocapture noundef nonnull align 8 dereferenceable(8) %1) local_unnamed_addr #2 align 2 personality ptr @__gxx_personality_v0 {
  %3 = load ptr, ptr %1, align 8
  store ptr null, ptr %1, align 8
  %4 = load ptr, ptr %0, align 8
  store ptr %3, ptr %0, align 8
  %.not.i.i.i.i = icmp eq ptr %4, null
  br i1 %.not.i.i.i.i, label %_ZNSt10unique_ptrIN32pxrInternal_v0_24__pxrReserved__10UsdZipFile8Iterator13_IteratorDataESt14default_deleteIS3_EEaSEOS6_.exit, label %_ZNKSt14default_deleteIN32pxrInternal_v0_24__pxrReserved__10UsdZipFile8Iterator13_IteratorDataEEclEPS3_.exit.i.i.i.i

_ZNKSt14default_deleteIN32pxrInternal_v0_24__pxrReserved__10UsdZipFile8Iterator13_IteratorDataEEclEPS3_.exit.i.i.i.i: ; preds = %2
  tail call void @_ZdlPvm(ptr noundef nonnull %4, i64 noundef 80) #23
  br label %_ZNSt10unique_ptrIN32pxrInternal_v0_24__pxrReserved__10UsdZipFile8Iterator13_IteratorDataESt14default_deleteIS3_EEaSEOS6_.exit

_ZNSt10unique_ptrIN32pxrInternal_v0_24__pxrReserved__10UsdZipFile8Iterator13_IteratorDataESt14default_deleteIS3_EEaSEOS6_.exit: ; preds = %2, %_ZNKSt14default_deleteIN32pxrInternal_v0_24__pxrReserved__10UsdZipFile8Iterator13_IteratorDataEEclEPS3_.exit.i.i.i.i
  ret ptr %0
}